; Function Attrs: mustprogress nofree norecurse nosync nounwind memory(readwrite, inaccessiblemem: none) uwtable
define void @_ZN3DHT16illustrate_dlineEi(ptr noundef nonnull readonly align 8 captures(none) dereferenceable(56) %0, i32 noundef %1) local_unnamed_addr #4 align 2 {
  %3 = getelementptr inbounds nuw i8, ptr %0, i64 40
  %4 = load ptr, ptr %3, align 8, !tbaa !87
  %5 = getelementptr inbounds nuw i8, ptr %4, i64 30
  %6 = load i16, ptr %5, align 2, !tbaa !75
  %.not22 = icmp eq i16 %6, 0
  br i1 %.not22, label %._crit_edge, label %.lr.ph

.lr.ph:                                           ; preds = %2
  %7 = add nsw i32 %1, 4
  %8 = getelementptr inbounds nuw i8, ptr %0, i64 8
  %9 = load ptr, ptr %8, align 8, !tbaa !77
  %10 = getelementptr inbounds nuw i8, ptr %0, i64 4
  %11 = load i32, ptr %10, align 4, !tbaa !76
  %12 = mul nsw i32 %11, %7
  %invariant.op = add i32 %12, 4
  %13 = getelementptr inbounds nuw i8, ptr %0, i64 48
  %14 = load ptr, ptr %13, align 8, !tbaa !78
  %15 = getelementptr inbounds nuw i8, ptr %0, i64 16
  %16 = load i16, ptr %15, align 8
  %17 = lshr i16 %16, 1
  %18 = and i16 %17, 32766
  %19 = uitofp nneg i16 %18 to float
  %20 = getelementptr inbounds nuw i8, ptr %0, i64 20
  %21 = load i16, ptr %20, align 4
  %22 = lshr i16 %21, 1
  %23 = and i16 %22, 32766
  %24 = uitofp nneg i16 %23 to float
  %wide.trip.count = zext i16 %6 to i64
  br label %25

._crit_edge:                                      ; preds = %36, %2
  ret void

25:                                               ; preds = %.lr.ph, %36
  %indvars.iv = phi i64 [ 0, %.lr.ph ], [ %indvars.iv.next, %36 ]
  %26 = trunc nuw nsw i64 %indvars.iv to i32
  %.reass = add i32 %invariant.op, %26
  %27 = sext i32 %.reass to i64
  %28 = getelementptr inbounds [3 x float], ptr %9, i64 %27, i64 2
  store float 5.000000e-01, ptr %28, align 4, !tbaa !81
  %29 = getelementptr inbounds [3 x float], ptr %9, i64 %27, i64 1
  store float 5.000000e-01, ptr %29, align 4, !tbaa !81
  %30 = getelementptr inbounds [3 x float], ptr %9, i64 %27
  store float 5.000000e-01, ptr %30, align 4, !tbaa !81
  %31 = getelementptr inbounds i8, ptr %14, i64 %27
  %32 = load i8, ptr %31, align 1, !tbaa !96
  %33 = and i8 %32, 64
  %.not = icmp eq i8 %33, 0
  br i1 %.not, label %35, label %34

34:                                               ; preds = %25
  store float %19, ptr %30, align 4, !tbaa !81
  br label %36

35:                                               ; preds = %25
  store float %24, ptr %28, align 4, !tbaa !81
  br label %36

36:                                               ; preds = %35, %34
  %indvars.iv.next = add nuw nsw i64 %indvars.iv, 1
  %exitcond.not = icmp eq i64 %indvars.iv.next, %wide.trip.count
  br i1 %exitcond.not, label %._crit_edge, label %25, !llvm.loop !118
}